target datalayout = "e-m:e-p270:32:32-p271:32:32-p272:64:64-i64:64-i128:128-f80:128-n8:16:32:64-S128"
target triple = "x86_64-unknown-linux-gnu"

%"class.google::protobuf::internal::ExtensionSet" = type { ptr, i16, i16, %"union.google::protobuf::internal::ExtensionSet::AllocatedData" }
%"union.google::protobuf::internal::ExtensionSet::AllocatedData" = type { ptr }
%"class.absl::lts_20230802::log_internal::NullStream" = type { i8 }
%"struct.google::protobuf::internal::ExtensionSet::Extension" = type { %union.anon, i8, i8, i8, i8, i32, ptr }
%union.anon = type { i64 }

; Function Attrs: mustprogress nounwind uwtable
define linkonce_odr hidden noundef nonnull align 1 dereferenceable(1) ptr @_ZN4absl12lts_2023080212log_internal10NullStream14InternalStreamEv(ptr noundef nonnull align 1 dereferenceable(1) %this) #5 comdat align 2 {
entry:
  %this.addr = alloca ptr, align 8
  store ptr %this, ptr %this.addr, align 8
  %this1 = load ptr, ptr %this.addr, align 8
  ret ptr %this1
}

; Function Attrs: mustprogress uwtable
define noundef nonnull align 8 dereferenceable(16) ptr @_ZNK6google8protobuf8internal12ExtensionSet10GetMessageEiPKNS0_10DescriptorEPNS0_14MessageFactoryE(ptr noundef nonnull align 8 dereferenceable(24) %this, i32 noundef %number, ptr noundef %message_type, ptr noundef %factory) #4 align 2 {
entry:
  %retval = alloca ptr, align 8
  %this.addr = alloca ptr, align 8
  %number.addr = alloca i32, align 4
  %message_type.addr = alloca ptr, align 8
  %factory.addr = alloca ptr, align 8
  %extension = alloca ptr, align 8
  %ref.tmp = alloca %"class.absl::lts_20230802::log_internal::NullStream", align 1
  %ref.tmp6 = alloca %"class.absl::lts_20230802::log_internal::NullStream", align 1
  store ptr %this, ptr %this.addr, align 8
  store i32 %number, ptr %number.addr, align 4
  store ptr %message_type, ptr %message_type.addr, align 8
  store ptr %factory, ptr %factory.addr, align 8
  %this1 = load ptr, ptr %this.addr, align 8
  %0 = load i32, ptr %number.addr, align 4
  %call = call noundef ptr @_ZNK6google8protobuf8internal12ExtensionSet10FindOrNullEi(ptr noundef nonnull align 8 dereferenceable(24) %this1, i32 noundef %0)
  store ptr %call, ptr %extension, align 8
  %1 = load ptr, ptr %extension, align 8
  %cmp = icmp eq ptr %1, null
  br i1 %cmp, label %if.then, label %lor.lhs.false

lor.lhs.false:                                    ; preds = %entry
  %2 = load ptr, ptr %extension, align 8
  %is_cleared = getelementptr inbounds %"struct.google::protobuf::internal::ExtensionSet::Extension", ptr %2, i32 0, i32 3
  %bf.load = load i8, ptr %is_cleared, align 2
  %bf.clear = and i8 %bf.load, 15
  %bf.cast = trunc i8 %bf.clear to i1
  br i1 %bf.cast, label %if.then, label %if.else

if.then:                                          ; preds = %lor.lhs.false, %entry
  %3 = load ptr, ptr %factory.addr, align 8
  %4 = load ptr, ptr %message_type.addr, align 8
  %vtable = load ptr, ptr %3, align 8
  %vfn = getelementptr inbounds ptr, ptr %vtable, i64 2
  %5 = load ptr, ptr %vfn, align 8
  %call2 = call noundef ptr %5(ptr noundef nonnull align 8 dereferenceable(8) %3, ptr noundef %4)
  store ptr %call2, ptr %retval, align 8
  br label %return

if.else:                                          ; preds = %lor.lhs.false
  br label %while.cond

while.cond:                                       ; preds = %while.body, %if.else
  br i1 false, label %while.body, label %while.end

while.body:                                       ; preds = %while.cond
  %call3 = call noundef nonnull align 1 dereferenceable(1) ptr @_ZN4absl12lts_2023080212log_internal10NullStream14InternalStreamEv(ptr noundef nonnull align 1 dereferenceable(1) %ref.tmp)
  br label %while.cond, !llvm.loop !4

while.end:                                        ; preds = %while.cond
  br label %while.cond4

while.cond4:                                      ; preds = %while.body5, %while.end
  br i1 false, label %while.body5, label %while.end8

while.body5:                                      ; preds = %while.cond4
  %call7 = call noundef nonnull align 1 dereferenceable(1) ptr @_ZN4absl12lts_2023080212log_internal10NullStream14InternalStreamEv(ptr noundef nonnull align 1 dereferenceable(1) %ref.tmp6)
  br label %while.cond4, !llvm.loop !6

while.end8:                                       ; preds = %while.cond4
  %6 = load ptr, ptr %extension, align 8
  %is_lazy = getelementptr inbounds %"struct.google::protobuf::internal::ExtensionSet::Extension", ptr %6, i32 0, i32 3
  %bf.load9 = load i8, ptr %is_lazy, align 2
  %bf.lshr = lshr i8 %bf.load9, 4
  %bf.cast10 = trunc i8 %bf.lshr to i1
  br i1 %bf.cast10, label %if.then11, label %if.else18

if.then11:                                        ; preds = %while.end8
  %7 = load ptr, ptr %extension, align 8
  %8 = getelementptr inbounds %"struct.google::protobuf::internal::ExtensionSet::Extension", ptr %7, i32 0, i32 0
  %9 = load ptr, ptr %8, align 8
  %10 = load ptr, ptr %factory.addr, align 8
  %11 = load ptr, ptr %message_type.addr, align 8
  %vtable12 = load ptr, ptr %10, align 8
  %vfn13 = getelementptr inbounds ptr, ptr %vtable12, i64 2
  %12 = load ptr, ptr %vfn13, align 8
  %call14 = call noundef ptr %12(ptr noundef nonnull align 8 dereferenceable(8) %10, ptr noundef %11)
  %arena_ = getelementptr inbounds %"class.google::protobuf::internal::ExtensionSet", ptr %this1, i32 0, i32 0
  %13 = load ptr, ptr %arena_, align 8
  %vtable15 = load ptr, ptr %9, align 8
  %vfn16 = getelementptr inbounds ptr, ptr %vtable15, i64 3
  %14 = load ptr, ptr %vfn16, align 8
  %call17 = call noundef nonnull align 8 dereferenceable(16) ptr %14(ptr noundef nonnull align 8 dereferenceable(8) %9, ptr noundef nonnull align 8 dereferenceable(16) %call14, ptr noundef %13)
  store ptr %call17, ptr %retval, align 8
  br label %return

if.else18:                                        ; preds = %while.end8
  %15 = load ptr, ptr %extension, align 8
  %16 = getelementptr inbounds %"struct.google::protobuf::internal::ExtensionSet::Extension", ptr %15, i32 0, i32 0
  %17 = load ptr, ptr %16, align 8
  store ptr %17, ptr %retval, align 8
  br label %return

return:                                           ; preds = %if.else18, %if.then11, %if.then
  %18 = load ptr, ptr %retval, align 8
  ret ptr %18
}