; Function Attrs: mustprogress uwtable
define noundef nonnull align 8 dereferenceable(16) ptr @_ZNK6google8protobuf8internal12ExtensionSet10GetMessageEiPKNS0_10DescriptorEPNS0_14MessageFactoryE(ptr noundef nonnull align 8 dereferenceable(24) %this, i32 noundef %number, ptr noundef %message_type, ptr noundef %factory) local_unnamed_addr #3 align 2 {
entry:
  %call = tail call noundef ptr @_ZNK6google8protobuf8internal12ExtensionSet10FindOrNullEi(ptr noundef nonnull align 8 dereferenceable(24) %this, i32 noundef %number)
  %cmp = icmp eq ptr %call, null
  br i1 %cmp, label %if.then, label %lor.lhs.false

lor.lhs.false:                                    ; preds = %entry
  %is_cleared = getelementptr inbounds nuw i8, ptr %call, i64 10
  %bf.load = load i8, ptr %is_cleared, align 2
  %bf.cast = trunc i8 %bf.load to i1
  br i1 %bf.cast, label %if.then, label %while.end8

if.then:                                          ; preds = %lor.lhs.false, %entry
  %vtable = load ptr, ptr %factory, align 8
  %vfn = getelementptr inbounds nuw i8, ptr %vtable, i64 16
  %0 = load ptr, ptr %vfn, align 8
  %call2 = tail call noundef ptr %0(ptr noundef nonnull align 8 dereferenceable(8) %factory, ptr noundef %message_type)
  br label %return

while.end8:                                       ; preds = %lor.lhs.false
  %1 = and i8 %bf.load, 16
  %bf.cast10.not = icmp eq i8 %1, 0
  %2 = load ptr, ptr %call, align 8
  br i1 %bf.cast10.not, label %return, label %if.then11

if.then11:                                        ; preds = %while.end8
  %vtable12 = load ptr, ptr %factory, align 8
  %vfn13 = getelementptr inbounds nuw i8, ptr %vtable12, i64 16
  %3 = load ptr, ptr %vfn13, align 8
  %call14 = tail call noundef ptr %3(ptr noundef nonnull align 8 dereferenceable(8) %factory, ptr noundef %message_type)
  %4 = load ptr, ptr %this, align 8
  %vtable15 = load ptr, ptr %2, align 8
  %vfn16 = getelementptr inbounds nuw i8, ptr %vtable15, i64 24
  %5 = load ptr, ptr %vfn16, align 8
  %call17 = tail call noundef nonnull align 8 dereferenceable(16) ptr %5(ptr noundef nonnull align 8 dereferenceable(8) %2, ptr noundef nonnull align 8 dereferenceable(16) %call14, ptr noundef %4)
  br label %return

return:                                           ; preds = %while.end8, %if.then11, %if.then
  %retval.0 = phi ptr [ %call2, %if.then ], [ %call17, %if.then11 ], [ %2, %while.end8 ]
  ret ptr %retval.0
}